; Function Attrs: nounwind uwtable
define ptr @lean_mk_eager_lambda_lifting_name(ptr noundef %0, ptr noundef %1) local_unnamed_addr #0 {
  %3 = tail call ptr @l___private_Init_Data_Repr_0__Nat_reprFast(ptr noundef %1) #4
  %4 = load ptr, ptr @l_Lean_Compiler_mkEagerLambdaLiftingName___closed__1, align 8, !tbaa !4
  %5 = tail call ptr @lean_string_append(ptr noundef %4, ptr noundef %3) #4
  %6 = ptrtoint ptr %3 to i64
  %7 = and i64 %6, 1
  %.not = icmp eq i64 %7, 0
  br i1 %.not, label %8, label %lean_dec.exit

8:                                                ; preds = %2
  %9 = load i32, ptr %3, align 4, !tbaa !8
  %10 = icmp sgt i32 %9, 1
  br i1 %10, label %11, label %13, !prof !11

11:                                               ; preds = %8
  %12 = add nsw i32 %9, -1
  store i32 %12, ptr %3, align 4, !tbaa !8
  br label %lean_dec.exit

13:                                               ; preds = %8
  %.not.i = icmp eq i32 %9, 0
  br i1 %.not.i, label %lean_dec.exit, label %14

14:                                               ; preds = %13
  tail call void @lean_dec_ref_cold(ptr noundef nonnull %3) #4
  br label %lean_dec.exit

lean_dec.exit:                                    ; preds = %14, %13, %11, %2
  %15 = tail call ptr @l_Lean_Name_str___override(ptr noundef %0, ptr noundef %5) #4
  ret ptr %15
}